target datalayout = "e-m:e-p270:32:32-p271:32:32-p272:64:64-i64:64-i128:128-f80:128-n8:16:32:64-S128"
target triple = "x86_64-pc-linux-gnu"

%struct.PixOrCopyBlock = type { ptr, ptr, i32 }
%struct.VP8LRefsCursor = type { ptr, ptr, ptr }
%struct.PixOrCopy = type { i8, i16, i32 }

; Function Attrs: nounwind uwtable
define hidden void @VP8LRefsCursorNextBlock(ptr noundef %0) #0 {
  %2 = alloca ptr, align 8
  %3 = alloca ptr, align 8
  store ptr %0, ptr %2, align 8, !tbaa !30
  call void @llvm.lifetime.start.p0(i64 8, ptr %3) #7
  %4 = load ptr, ptr %2, align 8, !tbaa !30
  %5 = getelementptr inbounds nuw %struct.VP8LRefsCursor, ptr %4, i32 0, i32 1
  %6 = load ptr, ptr %5, align 8, !tbaa !24
  %7 = getelementptr inbounds nuw %struct.PixOrCopyBlock, ptr %6, i32 0, i32 0
  %8 = load ptr, ptr %7, align 8, !tbaa !19
  store ptr %8, ptr %3, align 8, !tbaa !16
  %9 = load ptr, ptr %3, align 8, !tbaa !16
  %10 = icmp eq ptr %9, null
  br i1 %10, label %11, label %12

11:                                               ; preds = %1
  br label %16

12:                                               ; preds = %1
  %13 = load ptr, ptr %3, align 8, !tbaa !16
  %14 = getelementptr inbounds nuw %struct.PixOrCopyBlock, ptr %13, i32 0, i32 1
  %15 = load ptr, ptr %14, align 8, !tbaa !26
  br label %16

16:                                               ; preds = %12, %11
  %17 = phi ptr [ null, %11 ], [ %15, %12 ]
  %18 = load ptr, ptr %2, align 8, !tbaa !30
  %19 = getelementptr inbounds nuw %struct.VP8LRefsCursor, ptr %18, i32 0, i32 0
  store ptr %17, ptr %19, align 8, !tbaa !27
  %20 = load ptr, ptr %3, align 8, !tbaa !16
  %21 = icmp eq ptr %20, null
  br i1 %21, label %22, label %23

22:                                               ; preds = %16
  br label %32

23:                                               ; preds = %16
  %24 = load ptr, ptr %3, align 8, !tbaa !16
  %25 = getelementptr inbounds nuw %struct.PixOrCopyBlock, ptr %24, i32 0, i32 1
  %26 = load ptr, ptr %25, align 8, !tbaa !26
  %27 = load ptr, ptr %3, align 8, !tbaa !16
  %28 = getelementptr inbounds nuw %struct.PixOrCopyBlock, ptr %27, i32 0, i32 2
  %29 = load i32, ptr %28, align 8, !tbaa !28
  %30 = sext i32 %29 to i64
  %31 = getelementptr inbounds %struct.PixOrCopy, ptr %26, i64 %30
  br label %32

32:                                               ; preds = %23, %22
  %33 = phi ptr [ null, %22 ], [ %31, %23 ]
  %34 = load ptr, ptr %2, align 8, !tbaa !30
  %35 = getelementptr inbounds nuw %struct.VP8LRefsCursor, ptr %34, i32 0, i32 2
  store ptr %33, ptr %35, align 8, !tbaa !29
  %36 = load ptr, ptr %3, align 8, !tbaa !16
  %37 = load ptr, ptr %2, align 8, !tbaa !30
  %38 = getelementptr inbounds nuw %struct.VP8LRefsCursor, ptr %37, i32 0, i32 1
  store ptr %36, ptr %38, align 8, !tbaa !24
  call void @llvm.lifetime.end.p0(i64 8, ptr %3) #7
  ret void
}