; Function Attrs: mustprogress nofree norecurse nosync nounwind willreturn memory(read, argmem: readwrite, inaccessiblemem: none) uwtable
define hidden void @VP8LRefsCursorNextBlock(ptr noundef captures(none) initializes((0, 8), (16, 24)) %0) local_unnamed_addr #7 {
  %2 = getelementptr inbounds nuw i8, ptr %0, i64 8
  %3 = load ptr, ptr %2, align 8, !tbaa !21
  %4 = load ptr, ptr %3, align 8, !tbaa !16
  %5 = icmp eq ptr %4, null
  br i1 %5, label %.critedge, label %6

6:                                                ; preds = %1
  %7 = getelementptr inbounds nuw i8, ptr %4, i64 8
  %8 = load ptr, ptr %7, align 8, !tbaa !23
  %9 = getelementptr inbounds nuw i8, ptr %4, i64 16
  %10 = load i32, ptr %9, align 8, !tbaa !24
  %11 = sext i32 %10 to i64
  %12 = getelementptr inbounds %struct.PixOrCopy, ptr %8, i64 %11
  br label %.critedge

.critedge:                                        ; preds = %1, %6
  %.sink = phi ptr [ %8, %6 ], [ null, %1 ]
  %13 = phi ptr [ %12, %6 ], [ null, %1 ]
  store ptr %.sink, ptr %0, align 8, !tbaa !25
  %14 = getelementptr inbounds nuw i8, ptr %0, i64 16
  store ptr %13, ptr %14, align 8, !tbaa !26
  store ptr %4, ptr %2, align 8, !tbaa !21
  ret void
}